target datalayout = "e-m:e-p270:32:32-p271:32:32-p272:64:64-i64:64-i128:128-f80:128-n8:16:32:64-S128"
target triple = "x86_64-pc-linux-gnu"

%struct.mbedtls_cipher_context_t = type { ptr, i32, i32, ptr, ptr, [16 x i8], i64, [16 x i8], i64, ptr, ptr }
%struct.psa_aead_operation_s = type { i32, i32, i16, i64, i64, i8, %union.psa_driver_aead_context_t }
%union.psa_driver_aead_context_t = type { %struct.mbedtls_psa_aead_operation_t }
%struct.mbedtls_psa_aead_operation_t = type { i32, i16, i8, i8, %union.anon.1 }
%union.anon.1 = type { %struct.mbedtls_gcm_context }
%struct.mbedtls_gcm_context = type { %struct.mbedtls_cipher_context_t, [16 x i64], [16 x i64], i64, i64, [16 x i8], [16 x i8], [16 x i8], i32 }

; Function Attrs: nounwind uwtable
define hidden i32 @psa_driver_wrapper_aead_abort(ptr noundef %0) #0 {
  %2 = alloca i32, align 4
  %3 = alloca ptr, align 8
  store ptr %0, ptr %3, align 8
  %4 = load ptr, ptr %3, align 8
  %5 = getelementptr inbounds %struct.psa_aead_operation_s, ptr %4, i32 0, i32 0
  %6 = load i32, ptr %5, align 8
  switch i32 %6, label %11 [
    i32 1, label %7
  ]

7:                                                ; preds = %1
  %8 = load ptr, ptr %3, align 8
  %9 = getelementptr inbounds %struct.psa_aead_operation_s, ptr %8, i32 0, i32 6
  %10 = call i32 @mbedtls_psa_aead_abort(ptr noundef %9)
  store i32 %10, ptr %2, align 4
  br label %12

11:                                               ; preds = %1
  store i32 -135, ptr %2, align 4
  br label %12

12:                                               ; preds = %11, %7
  %13 = load i32, ptr %2, align 4
  ret i32 %13
}